; Function Attrs: nounwind sspstrong uwtable
define hidden i64 @rb_rational_abs(i64 noundef %0) #0 {
  %2 = inttoptr i64 %0 to ptr
  %3 = getelementptr inbounds nuw i8, ptr %2, i64 16
  %4 = load i64, ptr %3, align 8, !tbaa !19
  %5 = and i64 %4, 1
  %.not.i = icmp eq i64 %5, 0
  br i1 %.not.i, label %INT_NEGATIVE_P.exit, label %6

6:                                                ; preds = %1
  %7 = icmp slt i64 %4, 0
  br i1 %7, label %11, label %30

INT_NEGATIVE_P.exit:                              ; preds = %1
  %8 = inttoptr i64 %4 to ptr
  %9 = load i64, ptr %8, align 8, !tbaa !7
  %10 = and i64 %9, 8192
  %.not.i.i = icmp eq i64 %10, 0
  br i1 %.not.i.i, label %11, label %30

11:                                               ; preds = %6, %INT_NEGATIVE_P.exit
  %12 = tail call i64 @rb_int_abs(i64 noundef %4) #17
  %13 = icmp eq i64 %0, 0
  %14 = and i64 %0, 7
  %15 = icmp ne i64 %14, 0
  %16 = or i1 %13, %15
  br i1 %16, label %19, label %17

17:                                               ; preds = %11
  %18 = getelementptr inbounds nuw i8, ptr %2, i64 8
  br label %rb_class_of.exit

19:                                               ; preds = %11
  switch i64 %0, label %22 [
    i64 0, label %rb_class_of.exit
    i64 4, label %20
    i64 20, label %21
  ]

20:                                               ; preds = %19
  br label %rb_class_of.exit

21:                                               ; preds = %19
  br label %rb_class_of.exit

22:                                               ; preds = %19
  %23 = and i64 %0, 1
  %.not.i8 = icmp eq i64 %23, 0
  br i1 %.not.i8, label %24, label %rb_class_of.exit

24:                                               ; preds = %22
  %25 = and i64 %0, 254
  %26 = icmp eq i64 %25, 12
  %spec.select.i = select i1 %26, ptr @rb_cSymbol, ptr @rb_cFloat
  br label %rb_class_of.exit

rb_class_of.exit:                                 ; preds = %17, %19, %20, %21, %22, %24
  %.0.in.i = phi ptr [ @rb_cNilClass, %20 ], [ @rb_cTrueClass, %21 ], [ %18, %17 ], [ @rb_cFalseClass, %19 ], [ @rb_cInteger, %22 ], [ %spec.select.i, %24 ]
  %.0.i7 = load i64, ptr %.0.in.i, align 8, !tbaa !18
  %27 = getelementptr inbounds nuw i8, ptr %2, i64 24
  %28 = load i64, ptr %27, align 8, !tbaa !21
  %29 = tail call fastcc i64 @nurat_s_canonicalize_internal_no_reduce(i64 noundef %.0.i7, i64 noundef %12, i64 noundef %28)
  br label %30

30:                                               ; preds = %6, %INT_NEGATIVE_P.exit, %rb_class_of.exit
  %.0 = phi i64 [ %29, %rb_class_of.exit ], [ %0, %INT_NEGATIVE_P.exit ], [ %0, %6 ]
  ret i64 %.0
}